target datalayout = "e-m:e-p270:32:32-p271:32:32-p272:64:64-i64:64-i128:128-f80:128-n8:16:32:64-S128"
target triple = "x86_64-pc-linux-gnu"

%"class.icu_77::UObject" = type { ptr }
%"class.icu_77::UnicodeString" = type { %"class.icu_77::Replaceable", %"union.icu_77::UnicodeString::StackBufferOrFields" }
%"class.icu_77::Replaceable" = type { %"class.icu_77::UObject" }
%"union.icu_77::UnicodeString::StackBufferOrFields" = type { %struct.anon.0, [32 x i8] }
%struct.anon.0 = type { i16, i32, i32, ptr }
%"class.icu_77::number::impl::DecimalQuantity" = type <{ %"class.icu_77::IFixedDecimal", i8, [3 x i8], i32, i32, i8, i8, [2 x i8], double, i32, i32, i32, i32, %union.anon.5, i8, i8, [6 x i8] }>
%"class.icu_77::IFixedDecimal" = type { ptr }
%union.anon.5 = type { %struct.anon.6 }
%struct.anon.6 = type { ptr, i32 }

; Function Attrs: inlinehint mustprogress nounwind uwtable
define linkonce_odr noundef i32 @_ZNK6icu_7713UnicodeString14getShortLengthEv(ptr noundef nonnull align 8 dereferenceable(64) %0) #2 comdat align 2 {
  %2 = alloca ptr, align 8
  store ptr %0, ptr %2, align 8, !tbaa !27
  %3 = load ptr, ptr %2, align 8
  %4 = getelementptr inbounds nuw %"class.icu_77::UnicodeString", ptr %3, i32 0, i32 1
  %5 = getelementptr inbounds nuw %struct.anon.0, ptr %4, i32 0, i32 0
  %6 = load i16, ptr %5, align 8, !tbaa !69
  %7 = sext i16 %6 to i32
  %8 = ashr i32 %7, 5
  ret i32 %8
}

; Function Attrs: inlinehint mustprogress nounwind uwtable
define linkonce_odr noundef signext i8 @_ZNK6icu_7713UnicodeString14hasShortLengthEv(ptr noundef nonnull align 8 dereferenceable(64) %0) #2 comdat align 2 {
  %2 = alloca ptr, align 8
  store ptr %0, ptr %2, align 8, !tbaa !27
  %3 = load ptr, ptr %2, align 8
  %4 = getelementptr inbounds nuw %"class.icu_77::UnicodeString", ptr %3, i32 0, i32 1
  %5 = getelementptr inbounds nuw %struct.anon.0, ptr %4, i32 0, i32 0
  %6 = load i16, ptr %5, align 8, !tbaa !69
  %7 = sext i16 %6 to i32
  %8 = icmp sge i32 %7, 0
  %9 = zext i1 %8 to i8
  ret i8 %9
}

; Function Attrs: inlinehint mustprogress uwtable
define linkonce_odr noundef i32 @_ZNK6icu_7713UnicodeString6lengthEv(ptr noundef nonnull align 8 dereferenceable(64) %0) #3 comdat align 2 {
  %2 = alloca ptr, align 8
  store ptr %0, ptr %2, align 8, !tbaa !27
  %3 = load ptr, ptr %2, align 8
  %4 = call noundef signext i8 @_ZNK6icu_7713UnicodeString14hasShortLengthEv(ptr noundef nonnull align 8 dereferenceable(64) %3)
  %5 = icmp ne i8 %4, 0
  br i1 %5, label %6, label %8

6:                                                ; preds = %1
  %7 = call noundef i32 @_ZNK6icu_7713UnicodeString14getShortLengthEv(ptr noundef nonnull align 8 dereferenceable(64) %3)
  br label %12

8:                                                ; preds = %1
  %9 = getelementptr inbounds nuw %"class.icu_77::UnicodeString", ptr %3, i32 0, i32 1
  %10 = getelementptr inbounds nuw %struct.anon.0, ptr %9, i32 0, i32 1
  %11 = load i32, ptr %10, align 4, !tbaa !69
  br label %12

12:                                               ; preds = %8, %6
  %13 = phi i32 [ %7, %6 ], [ %11, %8 ]
  ret i32 %13
}

; Function Attrs: inlinehint mustprogress uwtable
define linkonce_odr noundef nonnull align 8 dereferenceable(64) ptr @_ZN6icu_7713UnicodeString6appendERKS0_(ptr noundef nonnull align 8 dereferenceable(64) %0, ptr noundef nonnull align 8 dereferenceable(64) %1) #3 comdat align 2 {
  %3 = alloca ptr, align 8
  %4 = alloca ptr, align 8
  store ptr %0, ptr %3, align 8, !tbaa !27
  store ptr %1, ptr %4, align 8, !tbaa !27
  %5 = load ptr, ptr %3, align 8
  %6 = load ptr, ptr %4, align 8, !tbaa !27
  %7 = load ptr, ptr %4, align 8, !tbaa !27
  %8 = call noundef i32 @_ZNK6icu_7713UnicodeString6lengthEv(ptr noundef nonnull align 8 dereferenceable(64) %7)
  %9 = call noundef nonnull align 8 dereferenceable(64) ptr @_ZN6icu_7713UnicodeString8doAppendERKS0_ii(ptr noundef nonnull align 8 dereferenceable(64) %5, ptr noundef nonnull align 8 dereferenceable(64) %6, i32 noundef 0, i32 noundef %8)
  ret ptr %9
}

; Function Attrs: mustprogress uwtable
define void @_ZN6icu_776number4impl17blueprint_helpers23generateIncrementOptionEjsiRNS_13UnicodeStringER10UErrorCode(i32 noundef %0, i16 noundef signext %1, i32 noundef %2, ptr noundef nonnull align 8 dereferenceable(64) %3, ptr noundef nonnull align 4 dereferenceable(4) %4) #1 personality ptr @__gxx_personality_v0 {
  %6 = alloca i32, align 4
  %7 = alloca i16, align 2
  %8 = alloca i32, align 4
  %9 = alloca ptr, align 8
  %10 = alloca ptr, align 8
  %11 = alloca %"class.icu_77::number::impl::DecimalQuantity", align 8
  %12 = alloca ptr, align 8
  %13 = alloca i32, align 4
  %14 = alloca %"class.icu_77::UnicodeString", align 8
  store i32 %0, ptr %6, align 4, !tbaa !14
  store i16 %1, ptr %7, align 2, !tbaa !210
  store i32 %2, ptr %8, align 4, !tbaa !14
  store ptr %3, ptr %9, align 8, !tbaa !27
  store ptr %4, ptr %10, align 8, !tbaa !22
  call void @llvm.lifetime.start.p0(i64 72, ptr %11) #14
  call void @_ZN6icu_776number4impl15DecimalQuantityC1Ev(ptr noundef nonnull align 8 dereferenceable(66) %11)
  %15 = load i32, ptr %6, align 4, !tbaa !14
  %16 = zext i32 %15 to i64
  %17 = invoke noundef nonnull align 8 dereferenceable(66) ptr @_ZN6icu_776number4impl15DecimalQuantity9setToLongEl(ptr noundef nonnull align 8 dereferenceable(66) %11, i64 noundef %16)
          to label %18 unwind label %29

18:                                               ; preds = %5
  %19 = load i16, ptr %7, align 2, !tbaa !210
  %20 = sext i16 %19 to i32
  %21 = invoke noundef zeroext i1 @_ZN6icu_776number4impl15DecimalQuantity15adjustMagnitudeEi(ptr noundef nonnull align 8 dereferenceable(66) %11, i32 noundef %20)
          to label %22 unwind label %29

22:                                               ; preds = %18
  %23 = load i32, ptr %8, align 4, !tbaa !14
  invoke void @_ZN6icu_776number4impl15DecimalQuantity14setMinFractionEi(ptr noundef nonnull align 8 dereferenceable(66) %11, i32 noundef %23)
          to label %24 unwind label %29

24:                                               ; preds = %22
  %25 = load ptr, ptr %9, align 8, !tbaa !27
  call void @llvm.lifetime.start.p0(i64 64, ptr %14) #14
  invoke void @_ZNK6icu_776number4impl15DecimalQuantity13toPlainStringEv(ptr dead_on_unwind writable sret(%"class.icu_77::UnicodeString") align 8 %14, ptr noundef nonnull align 8 dereferenceable(66) %11)
          to label %26 unwind label %33

26:                                               ; preds = %24
  %27 = invoke noundef nonnull align 8 dereferenceable(64) ptr @_ZN6icu_7713UnicodeString6appendERKS0_(ptr noundef nonnull align 8 dereferenceable(64) %25, ptr noundef nonnull align 8 dereferenceable(64) %14)
          to label %28 unwind label %37

28:                                               ; preds = %26
  call void @_ZN6icu_7713UnicodeStringD1Ev(ptr noundef nonnull align 8 dereferenceable(64) %14) #14
  call void @llvm.lifetime.end.p0(i64 64, ptr %14) #14
  call void @_ZN6icu_776number4impl15DecimalQuantityD1Ev(ptr noundef nonnull align 8 dereferenceable(66) %11) #14
  call void @llvm.lifetime.end.p0(i64 72, ptr %11) #14
  ret void

29:                                               ; preds = %22, %18, %5
  %30 = landingpad { ptr, i32 }
          cleanup
  %31 = extractvalue { ptr, i32 } %30, 0
  store ptr %31, ptr %12, align 8
  %32 = extractvalue { ptr, i32 } %30, 1
  store i32 %32, ptr %13, align 4
  br label %42

33:                                               ; preds = %24
  %34 = landingpad { ptr, i32 }
          cleanup
  %35 = extractvalue { ptr, i32 } %34, 0
  store ptr %35, ptr %12, align 8
  %36 = extractvalue { ptr, i32 } %34, 1
  store i32 %36, ptr %13, align 4
  br label %41

37:                                               ; preds = %26
  %38 = landingpad { ptr, i32 }
          cleanup
  %39 = extractvalue { ptr, i32 } %38, 0
  store ptr %39, ptr %12, align 8
  %40 = extractvalue { ptr, i32 } %38, 1
  store i32 %40, ptr %13, align 4
  call void @_ZN6icu_7713UnicodeStringD1Ev(ptr noundef nonnull align 8 dereferenceable(64) %14) #14
  br label %41

41:                                               ; preds = %37, %33
  call void @llvm.lifetime.end.p0(i64 64, ptr %14) #14
  br label %42

42:                                               ; preds = %41, %29
  call void @_ZN6icu_776number4impl15DecimalQuantityD1Ev(ptr noundef nonnull align 8 dereferenceable(66) %11) #14
  call void @llvm.lifetime.end.p0(i64 72, ptr %11) #14
  br label %43

43:                                               ; preds = %42
  %44 = load ptr, ptr %12, align 8
  %45 = load i32, ptr %13, align 4
  %46 = insertvalue { ptr, i32 } poison, ptr %44, 0
  %47 = insertvalue { ptr, i32 } %46, i32 %45, 1
  resume { ptr, i32 } %47
}