; Function Attrs: mustprogress uwtable
define void @_ZN6icu_776number4impl17blueprint_helpers23generateIncrementOptionEjsiRNS_13UnicodeStringER10UErrorCode(i32 noundef %0, i16 noundef signext %1, i32 noundef %2, ptr noundef nonnull align 8 dereferenceable(64) %3, ptr nonnull readnone align 4 captures(none) %4) local_unnamed_addr #1 personality ptr @__gxx_personality_v0 {
  %6 = alloca %"class.icu_77::number::impl::DecimalQuantity", align 8
  %7 = alloca %"class.icu_77::UnicodeString", align 8
  call void @llvm.lifetime.start.p0(i64 72, ptr nonnull %6) #18
  call void @_ZN6icu_776number4impl15DecimalQuantityC1Ev(ptr noundef nonnull align 8 dereferenceable(66) %6)
  %8 = zext i32 %0 to i64
  %9 = invoke noundef nonnull align 8 dereferenceable(66) ptr @_ZN6icu_776number4impl15DecimalQuantity9setToLongEl(ptr noundef nonnull align 8 dereferenceable(66) %6, i64 noundef %8)
          to label %10 unwind label %25

10:                                               ; preds = %5
  %11 = sext i16 %1 to i32
  %12 = invoke noundef zeroext i1 @_ZN6icu_776number4impl15DecimalQuantity15adjustMagnitudeEi(ptr noundef nonnull align 8 dereferenceable(66) %6, i32 noundef %11)
          to label %13 unwind label %25

13:                                               ; preds = %10
  invoke void @_ZN6icu_776number4impl15DecimalQuantity14setMinFractionEi(ptr noundef nonnull align 8 dereferenceable(66) %6, i32 noundef %2)
          to label %14 unwind label %25

14:                                               ; preds = %13
  call void @llvm.lifetime.start.p0(i64 64, ptr nonnull %7) #18
  invoke void @_ZNK6icu_776number4impl15DecimalQuantity13toPlainStringEv(ptr dead_on_unwind nonnull writable sret(%"class.icu_77::UnicodeString") align 8 %7, ptr noundef nonnull align 8 dereferenceable(66) %6)
          to label %15 unwind label %27

15:                                               ; preds = %14
  %16 = getelementptr inbounds nuw i8, ptr %7, i64 8
  %17 = load i16, ptr %16, align 8, !tbaa !25
  %18 = icmp slt i16 %17, 0
  %19 = ashr i16 %17, 5
  %20 = sext i16 %19 to i32
  %21 = getelementptr inbounds nuw i8, ptr %7, i64 12
  %22 = load i32, ptr %21, align 4
  %23 = select i1 %18, i32 %22, i32 %20
  %24 = invoke noundef nonnull align 8 dereferenceable(64) ptr @_ZN6icu_7713UnicodeString8doAppendERKS0_ii(ptr noundef nonnull align 8 dereferenceable(64) %3, ptr noundef nonnull align 8 dereferenceable(64) %7, i32 noundef 0, i32 noundef %23)
          to label %_ZN6icu_7713UnicodeString6appendERKS0_.exit unwind label %29

_ZN6icu_7713UnicodeString6appendERKS0_.exit:      ; preds = %15
  call void @_ZN6icu_7713UnicodeStringD1Ev(ptr noundef nonnull align 8 dereferenceable(64) %7) #18
  call void @llvm.lifetime.end.p0(i64 64, ptr nonnull %7) #18
  call void @_ZN6icu_776number4impl15DecimalQuantityD1Ev(ptr noundef nonnull align 8 dereferenceable(66) %6) #18
  call void @llvm.lifetime.end.p0(i64 72, ptr nonnull %6) #18
  ret void

25:                                               ; preds = %13, %10, %5
  %26 = landingpad { ptr, i32 }
          cleanup
  br label %32

27:                                               ; preds = %14
  %28 = landingpad { ptr, i32 }
          cleanup
  br label %31

29:                                               ; preds = %15
  %30 = landingpad { ptr, i32 }
          cleanup
  call void @_ZN6icu_7713UnicodeStringD1Ev(ptr noundef nonnull align 8 dereferenceable(64) %7) #18
  br label %31

31:                                               ; preds = %29, %27
  %.pn = phi { ptr, i32 } [ %30, %29 ], [ %28, %27 ]
  call void @llvm.lifetime.end.p0(i64 64, ptr nonnull %7) #18
  br label %32

32:                                               ; preds = %31, %25
  %.pn.pn = phi { ptr, i32 } [ %.pn, %31 ], [ %26, %25 ]
  call void @_ZN6icu_776number4impl15DecimalQuantityD1Ev(ptr noundef nonnull align 8 dereferenceable(66) %6) #18
  call void @llvm.lifetime.end.p0(i64 72, ptr nonnull %6) #18
  resume { ptr, i32 } %.pn.pn
}